; Function Attrs: mustprogress uwtable
define hidden noundef ptr @_ZN4cvc58internal13preprocessing25PreprocessingPassRegistry10createPassEPNS1_24PreprocessingPassContextERKNSt7__cxx1112basic_stringIcSt11char_traitsIcESaIcEEE(ptr noundef nonnull align 8 dereferenceable(56) %0, ptr noundef %1, ptr noundef nonnull align 8 dereferenceable(32) %2) local_unnamed_addr #3 align 2 {
  %4 = alloca ptr, align 8
  %5 = tail call noundef nonnull align 8 dereferenceable(32) ptr @_ZNSt8__detail9_Map_baseINSt7__cxx1112basic_stringIcSt11char_traitsIcESaIcEEESt4pairIKS6_St8functionIFPN4cvc58internal13preprocessing17PreprocessingPassEPNSC_24PreprocessingPassContextEEEESaISJ_ENS_10_Select1stESt8equal_toIS6_ESt4hashIS6_ENS_18_Mod_range_hashingENS_20_Default_ranged_hashENS_20_Prime_rehash_policyENS_17_Hashtable_traitsILb1ELb0ELb1EEELb1EEixERS8_(ptr noundef nonnull align 8 dereferenceable(56) %0, ptr noundef nonnull align 8 dereferenceable(32) %2)
  call void @llvm.lifetime.start.p0(i64 8, ptr nonnull %4)
  store ptr %1, ptr %4, align 8, !tbaa !17
  %6 = getelementptr inbounds nuw i8, ptr %5, i64 16
  %7 = load ptr, ptr %6, align 8, !tbaa !10
  %.not.i.i = icmp eq ptr %7, null
  br i1 %.not.i.i, label %8, label %_ZNKSt8functionIFPN4cvc58internal13preprocessing17PreprocessingPassEPNS2_24PreprocessingPassContextEEEclES6_.exit

8:                                                ; preds = %3
  tail call void @_ZSt25__throw_bad_function_callv() #26
  unreachable

_ZNKSt8functionIFPN4cvc58internal13preprocessing17PreprocessingPassEPNS2_24PreprocessingPassContextEEEclES6_.exit: ; preds = %3
  %9 = getelementptr inbounds nuw i8, ptr %5, i64 24
  %10 = load ptr, ptr %9, align 8, !tbaa !12
  %11 = call noundef ptr %10(ptr noundef nonnull align 8 dereferenceable(32) %5, ptr noundef nonnull align 8 dereferenceable(8) %4)
  call void @llvm.lifetime.end.p0(i64 8, ptr nonnull %4)
  ret ptr %11
}